target datalayout = "e-m:e-p270:32:32-p271:32:32-p272:64:64-i64:64-i128:128-f80:128-n8:16:32:64-S128"
target triple = "x86_64-pc-linux-gnu"

%struct.CVodeMemRec = type { double, ptr, ptr, i32, i32, i32, double, double, ptr, i32, ptr, ptr, i32, ptr, i32, i32, double, double, ptr, i32, i32, i32, ptr, ptr, ptr, i32, i32, ptr, ptr, ptr, i32, double, i32, i32, double, ptr, ptr, i32, ptr, ptr, i32, i32, i32, double, ptr, ptr, [13 x ptr], ptr, ptr, ptr, ptr, ptr, [13 x ptr], ptr, ptr, ptr, ptr, [13 x ptr], ptr, ptr, ptr, ptr, ptr, i32, [13 x ptr], ptr, ptr, ptr, ptr, ptr, i32, double, i32, i32, i32, i32, i32, double, double, double, double, double, double, double, double, [14 x double], [6 x double], [13 x double], double, double, double, double, double, double, double, double, double, double, double, i32, ptr, i32, i64, i32, i32, i32, i32, i32, double, double, double, i64, i64, i64, i64, i64, i64, i64, i64, i64, ptr, i64, i64, ptr, i64, i64, i64, i64, i64, i64, i32, i64, i64, i64, i64, i64, i64, double, double, double, ptr, ptr, ptr, ptr, ptr, i32, i32, i64, double, double, double, i32, double, i32, i32, i32, i32, i32, i32, i32, i32, i32, i32, i32, i32, i32, i32, i32, i32, ptr, ptr, ptr, i32, [6 x [4 x double]], i32, i64, ptr, i32, ptr, ptr, double, double, double, ptr, ptr, ptr, double, double, i32, i32, i64, ptr, i32, i32, ptr, i32 }
%struct.CVSpilsMemRec = type { i32, i32, i32, double, double, double, double, i32, i64, i64, i64, i64, i64, i64, i64, ptr, ptr, ptr, ptr, ptr, ptr, ptr, ptr, ptr, i32, ptr, ptr, i64 }

@.str = private unnamed_addr constant [10 x i8] c"CVSPTFQMR\00", align 1
@.str.13 = private unnamed_addr constant [15 x i8] c"CVSptfqmrSolve\00", align 1
@.str.14 = private unnamed_addr constant [65 x i8] c"The Jacobian x vector routine failed in an unrecoverable manner.\00", align 1
@.str.15 = private unnamed_addr constant [68 x i8] c"The preconditioner solve routine failed in an unrecoverable manner.\00", align 1

; Function Attrs: nounwind uwtable
define internal i32 @CVSptfqmrSolve(ptr noundef %0, ptr noundef %1, ptr noundef %2, ptr noundef %3, ptr noundef %4) #0 {
  %6 = alloca i32, align 4
  %7 = alloca ptr, align 8
  %8 = alloca ptr, align 8
  %9 = alloca ptr, align 8
  %10 = alloca ptr, align 8
  %11 = alloca ptr, align 8
  %12 = alloca double, align 8
  %13 = alloca double, align 8
  %14 = alloca ptr, align 8
  %15 = alloca ptr, align 8
  %16 = alloca i32, align 4
  %17 = alloca i32, align 4
  %18 = alloca i32, align 4
  %19 = alloca i32, align 4
  store ptr %0, ptr %7, align 8, !tbaa !9
  store ptr %1, ptr %8, align 8, !tbaa !62
  store ptr %2, ptr %9, align 8, !tbaa !62
  store ptr %3, ptr %10, align 8, !tbaa !62
  store ptr %4, ptr %11, align 8, !tbaa !62
  call void @llvm.lifetime.start.p0(i64 8, ptr %12) #5
  call void @llvm.lifetime.start.p0(i64 8, ptr %13) #5
  call void @llvm.lifetime.start.p0(i64 8, ptr %14) #5
  call void @llvm.lifetime.start.p0(i64 8, ptr %15) #5
  call void @llvm.lifetime.start.p0(i64 4, ptr %16) #5
  call void @llvm.lifetime.start.p0(i64 4, ptr %17) #5
  call void @llvm.lifetime.start.p0(i64 4, ptr %18) #5
  %20 = load ptr, ptr %7, align 8, !tbaa !9
  %21 = getelementptr inbounds nuw %struct.CVodeMemRec, ptr %20, i32 0, i32 144
  %22 = load ptr, ptr %21, align 8, !tbaa !52
  store ptr %22, ptr %14, align 8, !tbaa !31
  %23 = load ptr, ptr %14, align 8, !tbaa !31
  %24 = getelementptr inbounds nuw %struct.CVSpilsMemRec, ptr %23, i32 0, i32 19
  %25 = load ptr, ptr %24, align 8, !tbaa !51
  store ptr %25, ptr %15, align 8, !tbaa !3
  %26 = load ptr, ptr %14, align 8, !tbaa !31
  %27 = getelementptr inbounds nuw %struct.CVSpilsMemRec, ptr %26, i32 0, i32 4
  %28 = load double, ptr %27, align 8, !tbaa !45
  %29 = load ptr, ptr %7, align 8, !tbaa !9
  %30 = getelementptr inbounds nuw %struct.CVodeMemRec, ptr %29, i32 0, i32 86
  %31 = getelementptr inbounds [6 x double], ptr %30, i64 0, i64 4
  %32 = load double, ptr %31, align 8, !tbaa !66
  %33 = fmul double %28, %32
  %34 = load ptr, ptr %14, align 8, !tbaa !31
  %35 = getelementptr inbounds nuw %struct.CVSpilsMemRec, ptr %34, i32 0, i32 5
  store double %33, ptr %35, align 8, !tbaa !69
  %36 = load ptr, ptr %8, align 8, !tbaa !62
  %37 = load ptr, ptr %9, align 8, !tbaa !62
  %38 = call double @N_VWrmsNorm(ptr noundef %36, ptr noundef %37)
  store double %38, ptr %12, align 8, !tbaa !66
  %39 = load double, ptr %12, align 8, !tbaa !66
  %40 = load ptr, ptr %14, align 8, !tbaa !31
  %41 = getelementptr inbounds nuw %struct.CVSpilsMemRec, ptr %40, i32 0, i32 5
  %42 = load double, ptr %41, align 8, !tbaa !69
  %43 = fcmp ole double %39, %42
  br i1 %43, label %44, label %52

44:                                               ; preds = %5
  %45 = load ptr, ptr %7, align 8, !tbaa !9
  %46 = getelementptr inbounds nuw %struct.CVodeMemRec, ptr %45, i32 0, i32 99
  %47 = load i32, ptr %46, align 8, !tbaa !70
  %48 = icmp sgt i32 %47, 0
  br i1 %48, label %49, label %51

49:                                               ; preds = %44
  %50 = load ptr, ptr %8, align 8, !tbaa !62
  call void @N_VConst(double noundef 0.000000e+00, ptr noundef %50)
  br label %51

51:                                               ; preds = %49, %44
  store i32 0, ptr %6, align 4
  store i32 1, ptr %19, align 4
  br label %133

52:                                               ; preds = %5
  %53 = load ptr, ptr %10, align 8, !tbaa !62
  %54 = load ptr, ptr %14, align 8, !tbaa !31
  %55 = getelementptr inbounds nuw %struct.CVSpilsMemRec, ptr %54, i32 0, i32 17
  store ptr %53, ptr %55, align 8, !tbaa !71
  %56 = load ptr, ptr %11, align 8, !tbaa !62
  %57 = load ptr, ptr %14, align 8, !tbaa !31
  %58 = getelementptr inbounds nuw %struct.CVSpilsMemRec, ptr %57, i32 0, i32 18
  store ptr %56, ptr %58, align 8, !tbaa !72
  %59 = load ptr, ptr %14, align 8, !tbaa !31
  %60 = getelementptr inbounds nuw %struct.CVSpilsMemRec, ptr %59, i32 0, i32 5
  %61 = load double, ptr %60, align 8, !tbaa !69
  %62 = load ptr, ptr %14, align 8, !tbaa !31
  %63 = getelementptr inbounds nuw %struct.CVSpilsMemRec, ptr %62, i32 0, i32 3
  %64 = load double, ptr %63, align 8, !tbaa !50
  %65 = fmul double %61, %64
  %66 = load ptr, ptr %14, align 8, !tbaa !31
  %67 = getelementptr inbounds nuw %struct.CVSpilsMemRec, ptr %66, i32 0, i32 6
  store double %65, ptr %67, align 8, !tbaa !73
  %68 = load ptr, ptr %14, align 8, !tbaa !31
  %69 = getelementptr inbounds nuw %struct.CVSpilsMemRec, ptr %68, i32 0, i32 16
  %70 = load ptr, ptr %69, align 8, !tbaa !49
  call void @N_VConst(double noundef 0.000000e+00, ptr noundef %70)
  %71 = load ptr, ptr %15, align 8, !tbaa !3
  %72 = load ptr, ptr %7, align 8, !tbaa !9
  %73 = load ptr, ptr %14, align 8, !tbaa !31
  %74 = getelementptr inbounds nuw %struct.CVSpilsMemRec, ptr %73, i32 0, i32 16
  %75 = load ptr, ptr %74, align 8, !tbaa !49
  %76 = load ptr, ptr %8, align 8, !tbaa !62
  %77 = load ptr, ptr %14, align 8, !tbaa !31
  %78 = getelementptr inbounds nuw %struct.CVSpilsMemRec, ptr %77, i32 0, i32 1
  %79 = load i32, ptr %78, align 4, !tbaa !35
  %80 = load ptr, ptr %14, align 8, !tbaa !31
  %81 = getelementptr inbounds nuw %struct.CVSpilsMemRec, ptr %80, i32 0, i32 6
  %82 = load double, ptr %81, align 8, !tbaa !73
  %83 = load ptr, ptr %7, align 8, !tbaa !9
  %84 = load ptr, ptr %9, align 8, !tbaa !62
  %85 = load ptr, ptr %9, align 8, !tbaa !62
  %86 = call i32 @SptfqmrSolve(ptr noundef %71, ptr noundef %72, ptr noundef %75, ptr noundef %76, i32 noundef %79, double noundef %82, ptr noundef %83, ptr noundef %84, ptr noundef %85, ptr noundef @CVSpilsAtimes, ptr noundef @CVSpilsPSolve, ptr noundef %13, ptr noundef %16, ptr noundef %17)
  store i32 %86, ptr %18, align 4, !tbaa !7
  %87 = load ptr, ptr %14, align 8, !tbaa !31
  %88 = getelementptr inbounds nuw %struct.CVSpilsMemRec, ptr %87, i32 0, i32 16
  %89 = load ptr, ptr %88, align 8, !tbaa !49
  %90 = load ptr, ptr %8, align 8, !tbaa !62
  call void @N_VScale(double noundef 1.000000e+00, ptr noundef %89, ptr noundef %90)
  %91 = load i32, ptr %16, align 4, !tbaa !7
  %92 = sext i32 %91 to i64
  %93 = load ptr, ptr %14, align 8, !tbaa !31
  %94 = getelementptr inbounds nuw %struct.CVSpilsMemRec, ptr %93, i32 0, i32 10
  %95 = load i64, ptr %94, align 8, !tbaa !56
  %96 = add nsw i64 %95, %92
  store i64 %96, ptr %94, align 8, !tbaa !56
  %97 = load i32, ptr %17, align 4, !tbaa !7
  %98 = sext i32 %97 to i64
  %99 = load ptr, ptr %14, align 8, !tbaa !31
  %100 = getelementptr inbounds nuw %struct.CVSpilsMemRec, ptr %99, i32 0, i32 11
  %101 = load i64, ptr %100, align 8, !tbaa !55
  %102 = add nsw i64 %101, %98
  store i64 %102, ptr %100, align 8, !tbaa !55
  %103 = load i32, ptr %18, align 4, !tbaa !7
  %104 = icmp ne i32 %103, 0
  br i1 %104, label %105, label %110

105:                                              ; preds = %52
  %106 = load ptr, ptr %14, align 8, !tbaa !31
  %107 = getelementptr inbounds nuw %struct.CVSpilsMemRec, ptr %106, i32 0, i32 12
  %108 = load i64, ptr %107, align 8, !tbaa !54
  %109 = add nsw i64 %108, 1
  store i64 %109, ptr %107, align 8, !tbaa !54
  br label %110

110:                                              ; preds = %105, %52
  %111 = load i32, ptr %18, align 4, !tbaa !7
  %112 = sext i32 %111 to i64
  %113 = load ptr, ptr %14, align 8, !tbaa !31
  %114 = getelementptr inbounds nuw %struct.CVSpilsMemRec, ptr %113, i32 0, i32 27
  store i64 %112, ptr %114, align 8, !tbaa !46
  %115 = load i32, ptr %18, align 4, !tbaa !7
  switch i32 %115, label %132 [
    i32 0, label %116
    i32 1, label %117
    i32 2, label %124
    i32 3, label %125
    i32 4, label %126
    i32 -1, label %127
    i32 -2, label %128
    i32 -3, label %130
  ]

116:                                              ; preds = %110
  store i32 0, ptr %6, align 4
  store i32 1, ptr %19, align 4
  br label %133

117:                                              ; preds = %110
  %118 = load ptr, ptr %7, align 8, !tbaa !9
  %119 = getelementptr inbounds nuw %struct.CVodeMemRec, ptr %118, i32 0, i32 99
  %120 = load i32, ptr %119, align 8, !tbaa !70
  %121 = icmp eq i32 %120, 0
  br i1 %121, label %122, label %123

122:                                              ; preds = %117
  store i32 0, ptr %6, align 4
  store i32 1, ptr %19, align 4
  br label %133

123:                                              ; preds = %117
  store i32 1, ptr %6, align 4
  store i32 1, ptr %19, align 4
  br label %133

124:                                              ; preds = %110
  store i32 1, ptr %6, align 4
  store i32 1, ptr %19, align 4
  br label %133

125:                                              ; preds = %110
  store i32 1, ptr %6, align 4
  store i32 1, ptr %19, align 4
  br label %133

126:                                              ; preds = %110
  store i32 1, ptr %6, align 4
  store i32 1, ptr %19, align 4
  br label %133

127:                                              ; preds = %110
  store i32 -1, ptr %6, align 4
  store i32 1, ptr %19, align 4
  br label %133

128:                                              ; preds = %110
  %129 = load ptr, ptr %7, align 8, !tbaa !9
  call void (ptr, i32, ptr, ptr, ptr, ...) @cvProcessError(ptr noundef %129, i32 noundef -2, ptr noundef @.str, ptr noundef @.str.13, ptr noundef @.str.14)
  store i32 -1, ptr %6, align 4
  store i32 1, ptr %19, align 4
  br label %133

130:                                              ; preds = %110
  %131 = load ptr, ptr %7, align 8, !tbaa !9
  call void (ptr, i32, ptr, ptr, ptr, ...) @cvProcessError(ptr noundef %131, i32 noundef -3, ptr noundef @.str, ptr noundef @.str.13, ptr noundef @.str.15)
  store i32 -1, ptr %6, align 4
  store i32 1, ptr %19, align 4
  br label %133

132:                                              ; preds = %110
  store i32 0, ptr %6, align 4
  store i32 1, ptr %19, align 4
  br label %133

133:                                              ; preds = %132, %130, %128, %127, %126, %125, %124, %123, %122, %116, %51
  call void @llvm.lifetime.end.p0(i64 4, ptr %18) #5
  call void @llvm.lifetime.end.p0(i64 4, ptr %17) #5
  call void @llvm.lifetime.end.p0(i64 4, ptr %16) #5
  call void @llvm.lifetime.end.p0(i64 8, ptr %15) #5
  call void @llvm.lifetime.end.p0(i64 8, ptr %14) #5
  call void @llvm.lifetime.end.p0(i64 8, ptr %13) #5
  call void @llvm.lifetime.end.p0(i64 8, ptr %12) #5
  %134 = load i32, ptr %6, align 4
  ret i32 %134
}